; Function Attrs: nofree norecurse nosync nounwind memory(readwrite, inaccessiblemem: none) uwtable
define hidden range(i32 -2, 1) i32 @ma_data_converter_get_input_channel_map(ptr noundef readonly captures(address_is_null) %0, ptr noundef writeonly captures(address_is_null) %1, i64 noundef %2) local_unnamed_addr #31 {
  %4 = icmp eq ptr %0, null
  %5 = icmp eq ptr %1, null
  %or.cond = or i1 %4, %5
  br i1 %or.cond, label %ma_channel_converter_get_output_channel_map.exit, label %6

6:                                                ; preds = %3
  %7 = getelementptr inbounds nuw i8, ptr %0, i64 298
  %8 = load i8, ptr %7, align 2
  %.not = icmp eq i8 %8, 0
  br i1 %.not, label %26, label %9

9:                                                ; preds = %6
  %10 = getelementptr inbounds nuw i8, ptr %0, i64 64
  %11 = load ptr, ptr %10, align 8
  %12 = getelementptr inbounds nuw i8, ptr %0, i64 40
  %13 = load i32, ptr %12, align 8
  %14 = icmp eq i32 %13, 0
  br i1 %14, label %ma_channel_converter_get_output_channel_map.exit, label %15

15:                                               ; preds = %9
  %.not.i.i = icmp eq ptr %11, null
  br i1 %.not.i.i, label %18, label %16

16:                                               ; preds = %15
  %17 = zext i32 %13 to i64
  tail call void @llvm.memcpy.p0.p0.i64(ptr nonnull align 1 %1, ptr nonnull readonly align 1 %11, i64 %17, i1 false)
  br label %ma_channel_converter_get_output_channel_map.exit

18:                                               ; preds = %15
  %19 = icmp eq i64 %2, 0
  br i1 %19, label %ma_channel_converter_get_output_channel_map.exit, label %.preheader.i.i.i

.preheader.i.i.i:                                 ; preds = %18, %.preheader.i.i.i
  %.024.i.i.i = phi i32 [ %23, %.preheader.i.i.i ], [ 0, %18 ]
  %.01723.i.i.i = phi ptr [ %21, %.preheader.i.i.i ], [ %1, %18 ]
  %.01822.i.i.i = phi i64 [ %22, %.preheader.i.i.i ], [ %2, %18 ]
  %20 = tail call fastcc zeroext i8 @ma_channel_map_init_standard_channel(i32 noundef 0, i32 noundef %13, i32 noundef %.024.i.i.i)
  store i8 %20, ptr %.01723.i.i.i, align 1
  %21 = getelementptr inbounds nuw i8, ptr %.01723.i.i.i, i64 1
  %22 = add i64 %.01822.i.i.i, -1
  %23 = add nuw i32 %.024.i.i.i, 1
  %24 = icmp uge i32 %23, %13
  %25 = icmp eq i64 %22, 0
  %or.cond5.i.i.i = select i1 %24, i1 true, i1 %25
  br i1 %or.cond5.i.i.i, label %ma_channel_converter_get_output_channel_map.exit, label %.preheader.i.i.i

26:                                               ; preds = %6
  %27 = getelementptr inbounds nuw i8, ptr %0, i64 12
  %28 = load i32, ptr %27, align 4
  %29 = icmp eq i64 %2, 0
  %30 = icmp eq i32 %28, 0
  %or.cond3.i = or i1 %29, %30
  br i1 %or.cond3.i, label %ma_channel_converter_get_output_channel_map.exit, label %.preheader.i

.preheader.i:                                     ; preds = %26, %.preheader.i
  %.024.i = phi i32 [ %34, %.preheader.i ], [ 0, %26 ]
  %.01723.i = phi ptr [ %32, %.preheader.i ], [ %1, %26 ]
  %.01822.i = phi i64 [ %33, %.preheader.i ], [ %2, %26 ]
  %31 = tail call fastcc zeroext i8 @ma_channel_map_init_standard_channel(i32 noundef 0, i32 noundef %28, i32 noundef %.024.i)
  store i8 %31, ptr %.01723.i, align 1
  %32 = getelementptr inbounds nuw i8, ptr %.01723.i, i64 1
  %33 = add i64 %.01822.i, -1
  %34 = add nuw i32 %.024.i, 1
  %35 = icmp uge i32 %34, %28
  %36 = icmp eq i64 %33, 0
  %or.cond5.i = select i1 %35, i1 true, i1 %36
  br i1 %or.cond5.i, label %ma_channel_converter_get_output_channel_map.exit, label %.preheader.i

ma_channel_converter_get_output_channel_map.exit: ; preds = %.preheader.i.i.i, %.preheader.i, %26, %18, %16, %9, %3
  %.0 = phi i32 [ -2, %3 ], [ 0, %9 ], [ 0, %16 ], [ 0, %18 ], [ 0, %26 ], [ 0, %.preheader.i ], [ 0, %.preheader.i.i.i ]
  ret i32 %.0
}